target datalayout = "e-m:e-p270:32:32-p271:32:32-p272:64:64-i64:64-i128:128-f80:128-n8:16:32:64-S128"
target triple = "x86_64-pc-linux-gnu"

@_ZL18JImageFindResource = internal global ptr null, align 8
@_ZZL25get_jimage_version_stringvE14version_string = internal global [10 x i8] zeroinitializer, align 1
@.str.93 = private unnamed_addr constant [6 x i8] c"%d.%d\00", align 1
@_ZN19Abstract_VM_Version17_vm_major_versionE = external global i32, align 4
@_ZN19Abstract_VM_Version17_vm_minor_versionE = external global i32, align 4

; Function Attrs: mustprogress nounwind uwtable
define linkonce_odr hidden noundef i32 @_ZN19Abstract_VM_Version16vm_minor_versionEv() #1 comdat align 2 {
  %1 = load i32, ptr @_ZN19Abstract_VM_Version17_vm_minor_versionE, align 4
  ret i32 %1
}

; Function Attrs: mustprogress nounwind uwtable
define linkonce_odr hidden noundef i32 @_ZN19Abstract_VM_Version16vm_major_versionEv() #1 comdat align 2 {
  %1 = load i32, ptr @_ZN19Abstract_VM_Version17_vm_major_versionE, align 4
  ret i32 %1
}

; Function Attrs: mustprogress nounwind uwtable
define internal noundef ptr @_ZL25get_jimage_version_stringv() #1 {
  %1 = load i8, ptr @_ZZL25get_jimage_version_stringvE14version_string, align 1
  %2 = sext i8 %1 to i32
  %3 = icmp eq i32 %2, 0
  br i1 %3, label %4, label %8

4:                                                ; preds = %0
  %5 = call noundef i32 @_ZN19Abstract_VM_Version16vm_major_versionEv()
  %6 = call noundef i32 @_ZN19Abstract_VM_Version16vm_minor_versionEv()
  %7 = call i32 (ptr, i64, ptr, ...) @jio_snprintf(ptr noundef @_ZZL25get_jimage_version_stringvE14version_string, i64 noundef 10, ptr noundef @.str.93, i32 noundef %5, i32 noundef %6)
  br label %8

8:                                                ; preds = %4, %0
  ret ptr @_ZZL25get_jimage_version_stringvE14version_string
}

; Function Attrs: mustprogress nounwind uwtable
define hidden noundef i64 @_ZN11ClassLoader20jimage_find_resourceEP10JImageFilePKcS3_Rl(ptr noundef %0, ptr noundef %1, ptr noundef %2, ptr noundef nonnull align 8 dereferenceable(8) %3) #1 align 2 {
  %5 = alloca ptr, align 8
  %6 = alloca ptr, align 8
  %7 = alloca ptr, align 8
  %8 = alloca ptr, align 8
  store ptr %0, ptr %5, align 8
  store ptr %1, ptr %6, align 8
  store ptr %2, ptr %7, align 8
  store ptr %3, ptr %8, align 8
  %9 = load ptr, ptr @_ZL18JImageFindResource, align 8
  %10 = load ptr, ptr %5, align 8
  %11 = load ptr, ptr %6, align 8
  %12 = call noundef ptr @_ZL25get_jimage_version_stringv()
  %13 = load ptr, ptr %7, align 8
  %14 = load ptr, ptr %8, align 8
  %15 = call noundef i64 %9(ptr noundef %10, ptr noundef %11, ptr noundef %12, ptr noundef %13, ptr noundef %14)
  ret i64 %15
}