; Function Attrs: mustprogress nounwind uwtable
define hidden noundef i64 @_ZN11ClassLoader20jimage_find_resourceEP10JImageFilePKcS3_Rl(ptr noundef %0, ptr noundef %1, ptr noundef %2, ptr noundef nonnull align 8 dereferenceable(8) %3) local_unnamed_addr #0 align 2 {
  %5 = load ptr, ptr @_ZL18JImageFindResource, align 8
  %6 = load i8, ptr @_ZZL25get_jimage_version_stringvE14version_string, align 1
  %7 = icmp eq i8 %6, 0
  br i1 %7, label %8, label %_ZL25get_jimage_version_stringv.exit

8:                                                ; preds = %4
  %9 = load i32, ptr @_ZN19Abstract_VM_Version17_vm_major_versionE, align 4
  %10 = load i32, ptr @_ZN19Abstract_VM_Version17_vm_minor_versionE, align 4
  %11 = tail call i32 (ptr, i64, ptr, ...) @jio_snprintf(ptr noundef nonnull @_ZZL25get_jimage_version_stringvE14version_string, i64 noundef 10, ptr noundef nonnull @.str.93, i32 noundef %9, i32 noundef %10) #20
  br label %_ZL25get_jimage_version_stringv.exit

_ZL25get_jimage_version_stringv.exit:             ; preds = %4, %8
  %12 = tail call noundef i64 %5(ptr noundef %0, ptr noundef %1, ptr noundef nonnull @_ZZL25get_jimage_version_stringvE14version_string, ptr noundef %2, ptr noundef nonnull %3) #20
  ret i64 %12
}